target datalayout = "e-m:e-p270:32:32-p271:32:32-p272:64:64-i64:64-i128:128-f80:128-n8:16:32:64-S128"
target triple = "x86_64-pc-linux-gnu"

%struct.SwsSlice = type { i32, i32, i32, i32, i32, i32, [4 x %struct.SwsPlane] }
%struct.SwsPlane = type { i32, i32, i32, ptr, ptr }

@.str = private unnamed_addr constant [30 x i8] c"Assertion %s failed at %s:%d\0A\00", align 1
@__const.alloc_lines.idx = private unnamed_addr constant [2 x i32] [i32 3, i32 2], align 4
@.str.3 = private unnamed_addr constant [34 x i8] c"n == s->plane[ii].available_lines\00", align 1
@.str.4 = private unnamed_addr constant [19 x i8] c"libswscale/slice.c\00", align 1

; Function Attrs: nounwind uwtable
define internal void @free_lines(ptr noundef %0) #0 {
  %2 = alloca ptr, align 8
  %3 = alloca i32, align 4
  %4 = alloca i32, align 4
  %5 = alloca i32, align 4
  store ptr %0, ptr %2, align 8, !tbaa !4
  call void @llvm.lifetime.start.p0(i64 4, ptr %3) #7
  store i32 0, ptr %3, align 4, !tbaa !9
  br label %6

6:                                                ; preds = %54, %1
  %7 = load i32, ptr %3, align 4, !tbaa !9
  %8 = icmp slt i32 %7, 2
  br i1 %8, label %9, label %57

9:                                                ; preds = %6
  call void @llvm.lifetime.start.p0(i64 4, ptr %4) #7
  %10 = load ptr, ptr %2, align 8, !tbaa !4
  %11 = getelementptr inbounds nuw %struct.SwsSlice, ptr %10, i32 0, i32 6
  %12 = load i32, ptr %3, align 4, !tbaa !9
  %13 = sext i32 %12 to i64
  %14 = getelementptr inbounds [4 x %struct.SwsPlane], ptr %11, i64 0, i64 %13
  %15 = getelementptr inbounds nuw %struct.SwsPlane, ptr %14, i32 0, i32 0
  %16 = load i32, ptr %15, align 8, !tbaa !11
  store i32 %16, ptr %4, align 4, !tbaa !9
  call void @llvm.lifetime.start.p0(i64 4, ptr %5) #7
  store i32 0, ptr %5, align 4, !tbaa !9
  br label %17

17:                                               ; preds = %50, %9
  %18 = load i32, ptr %5, align 4, !tbaa !9
  %19 = load i32, ptr %4, align 4, !tbaa !9
  %20 = icmp slt i32 %18, %19
  br i1 %20, label %21, label %53

21:                                               ; preds = %17
  %22 = load ptr, ptr %2, align 8, !tbaa !4
  %23 = getelementptr inbounds nuw %struct.SwsSlice, ptr %22, i32 0, i32 6
  %24 = load i32, ptr %3, align 4, !tbaa !9
  %25 = sext i32 %24 to i64
  %26 = getelementptr inbounds [4 x %struct.SwsPlane], ptr %23, i64 0, i64 %25
  %27 = getelementptr inbounds nuw %struct.SwsPlane, ptr %26, i32 0, i32 3
  %28 = load ptr, ptr %27, align 8, !tbaa !27
  %29 = load i32, ptr %5, align 4, !tbaa !9
  %30 = sext i32 %29 to i64
  %31 = getelementptr inbounds ptr, ptr %28, i64 %30
  call void @av_freep(ptr noundef %31)
  %32 = load ptr, ptr %2, align 8, !tbaa !4
  %33 = getelementptr inbounds nuw %struct.SwsSlice, ptr %32, i32 0, i32 3
  %34 = load i32, ptr %33, align 4, !tbaa !103
  %35 = icmp ne i32 %34, 0
  br i1 %35, label %36, label %49

36:                                               ; preds = %21
  %37 = load ptr, ptr %2, align 8, !tbaa !4
  %38 = getelementptr inbounds nuw %struct.SwsSlice, ptr %37, i32 0, i32 6
  %39 = load i32, ptr %3, align 4, !tbaa !9
  %40 = sext i32 %39 to i64
  %41 = getelementptr inbounds [4 x %struct.SwsPlane], ptr %38, i64 0, i64 %40
  %42 = getelementptr inbounds nuw %struct.SwsPlane, ptr %41, i32 0, i32 3
  %43 = load ptr, ptr %42, align 8, !tbaa !27
  %44 = load i32, ptr %5, align 4, !tbaa !9
  %45 = load i32, ptr %4, align 4, !tbaa !9
  %46 = add nsw i32 %44, %45
  %47 = sext i32 %46 to i64
  %48 = getelementptr inbounds ptr, ptr %43, i64 %47
  store ptr null, ptr %48, align 8, !tbaa !25
  br label %49

49:                                               ; preds = %36, %21
  br label %50

50:                                               ; preds = %49
  %51 = load i32, ptr %5, align 4, !tbaa !9
  %52 = add nsw i32 %51, 1
  store i32 %52, ptr %5, align 4, !tbaa !9
  br label %17, !llvm.loop !118

53:                                               ; preds = %17
  call void @llvm.lifetime.end.p0(i64 4, ptr %5) #7
  call void @llvm.lifetime.end.p0(i64 4, ptr %4) #7
  br label %54

54:                                               ; preds = %53
  %55 = load i32, ptr %3, align 4, !tbaa !9
  %56 = add nsw i32 %55, 1
  store i32 %56, ptr %3, align 4, !tbaa !9
  br label %6, !llvm.loop !119

57:                                               ; preds = %6
  store i32 0, ptr %3, align 4, !tbaa !9
  br label %58

58:                                               ; preds = %85, %57
  %59 = load i32, ptr %3, align 4, !tbaa !9
  %60 = icmp slt i32 %59, 4
  br i1 %60, label %61, label %88

61:                                               ; preds = %58
  %62 = load ptr, ptr %2, align 8, !tbaa !4
  %63 = getelementptr inbounds nuw %struct.SwsSlice, ptr %62, i32 0, i32 6
  %64 = load i32, ptr %3, align 4, !tbaa !9
  %65 = sext i32 %64 to i64
  %66 = getelementptr inbounds [4 x %struct.SwsPlane], ptr %63, i64 0, i64 %65
  %67 = getelementptr inbounds nuw %struct.SwsPlane, ptr %66, i32 0, i32 3
  %68 = load ptr, ptr %67, align 8, !tbaa !27
  %69 = load ptr, ptr %2, align 8, !tbaa !4
  %70 = getelementptr inbounds nuw %struct.SwsSlice, ptr %69, i32 0, i32 6
  %71 = load i32, ptr %3, align 4, !tbaa !9
  %72 = sext i32 %71 to i64
  %73 = getelementptr inbounds [4 x %struct.SwsPlane], ptr %70, i64 0, i64 %72
  %74 = getelementptr inbounds nuw %struct.SwsPlane, ptr %73, i32 0, i32 0
  %75 = load i32, ptr %74, align 8, !tbaa !11
  %76 = sext i32 %75 to i64
  %77 = mul i64 8, %76
  %78 = load ptr, ptr %2, align 8, !tbaa !4
  %79 = getelementptr inbounds nuw %struct.SwsSlice, ptr %78, i32 0, i32 3
  %80 = load i32, ptr %79, align 4, !tbaa !103
  %81 = icmp ne i32 %80, 0
  %82 = select i1 %81, i32 3, i32 1
  %83 = sext i32 %82 to i64
  %84 = mul i64 %77, %83
  call void @llvm.memset.p0.i64(ptr align 8 %68, i8 0, i64 %84, i1 false)
  br label %85

85:                                               ; preds = %61
  %86 = load i32, ptr %3, align 4, !tbaa !9
  %87 = add nsw i32 %86, 1
  store i32 %87, ptr %3, align 4, !tbaa !9
  br label %58, !llvm.loop !120

88:                                               ; preds = %58
  %89 = load ptr, ptr %2, align 8, !tbaa !4
  %90 = getelementptr inbounds nuw %struct.SwsSlice, ptr %89, i32 0, i32 4
  store i32 0, ptr %90, align 8, !tbaa !104
  call void @llvm.lifetime.end.p0(i64 4, ptr %3) #7
  ret void
}

; Function Attrs: nounwind uwtable
define internal i32 @alloc_lines(ptr noundef %0, i32 noundef %1, i32 noundef %2) #0 {
  %4 = alloca i32, align 4
  %5 = alloca ptr, align 8
  %6 = alloca i32, align 4
  %7 = alloca i32, align 4
  %8 = alloca i32, align 4
  %9 = alloca [2 x i32], align 4
  %10 = alloca i32, align 4
  %11 = alloca i32, align 4
  %12 = alloca i32, align 4
  %13 = alloca i32, align 4
  store ptr %0, ptr %5, align 8, !tbaa !4
  store i32 %1, ptr %6, align 4, !tbaa !9
  store i32 %2, ptr %7, align 4, !tbaa !9
  call void @llvm.lifetime.start.p0(i64 4, ptr %8) #7
  call void @llvm.lifetime.start.p0(i64 8, ptr %9) #7
  call void @llvm.memcpy.p0.p0.i64(ptr align 4 %9, ptr align 4 @__const.alloc_lines.idx, i64 8, i1 false)
  %14 = load ptr, ptr %5, align 8, !tbaa !4
  %15 = getelementptr inbounds nuw %struct.SwsSlice, ptr %14, i32 0, i32 4
  store i32 1, ptr %15, align 8, !tbaa !104
  %16 = load i32, ptr %7, align 4, !tbaa !9
  %17 = load ptr, ptr %5, align 8, !tbaa !4
  %18 = getelementptr inbounds nuw %struct.SwsSlice, ptr %17, i32 0, i32 0
  store i32 %16, ptr %18, align 8, !tbaa !23
  store i32 0, ptr %8, align 4, !tbaa !9
  br label %19

19:                                               ; preds = %167, %3
  %20 = load i32, ptr %8, align 4, !tbaa !9
  %21 = icmp slt i32 %20, 2
  br i1 %21, label %22, label %170

22:                                               ; preds = %19
  call void @llvm.lifetime.start.p0(i64 4, ptr %10) #7
  %23 = load ptr, ptr %5, align 8, !tbaa !4
  %24 = getelementptr inbounds nuw %struct.SwsSlice, ptr %23, i32 0, i32 6
  %25 = load i32, ptr %8, align 4, !tbaa !9
  %26 = sext i32 %25 to i64
  %27 = getelementptr inbounds [4 x %struct.SwsPlane], ptr %24, i64 0, i64 %26
  %28 = getelementptr inbounds nuw %struct.SwsPlane, ptr %27, i32 0, i32 0
  %29 = load i32, ptr %28, align 8, !tbaa !11
  store i32 %29, ptr %10, align 4, !tbaa !9
  call void @llvm.lifetime.start.p0(i64 4, ptr %11) #7
  call void @llvm.lifetime.start.p0(i64 4, ptr %12) #7
  %30 = load i32, ptr %8, align 4, !tbaa !9
  %31 = sext i32 %30 to i64
  %32 = getelementptr inbounds [2 x i32], ptr %9, i64 0, i64 %31
  %33 = load i32, ptr %32, align 4, !tbaa !9
  store i32 %33, ptr %12, align 4, !tbaa !9
  br label %34

34:                                               ; preds = %22
  %35 = load i32, ptr %10, align 4, !tbaa !9
  %36 = load ptr, ptr %5, align 8, !tbaa !4
  %37 = getelementptr inbounds nuw %struct.SwsSlice, ptr %36, i32 0, i32 6
  %38 = load i32, ptr %12, align 4, !tbaa !9
  %39 = sext i32 %38 to i64
  %40 = getelementptr inbounds [4 x %struct.SwsPlane], ptr %37, i64 0, i64 %39
  %41 = getelementptr inbounds nuw %struct.SwsPlane, ptr %40, i32 0, i32 0
  %42 = load i32, ptr %41, align 8, !tbaa !11
  %43 = icmp eq i32 %35, %42
  br i1 %43, label %45, label %44

44:                                               ; preds = %34
  call void (ptr, i32, ptr, ...) @av_log(ptr noundef null, i32 noundef 0, ptr noundef @.str, ptr noundef @.str.3, ptr noundef @.str.4, i32 noundef 59)
  call void @abort() #8
  unreachable

45:                                               ; preds = %34
  br label %46

46:                                               ; preds = %45
  br label %47

47:                                               ; preds = %46
  store i32 0, ptr %11, align 4, !tbaa !9
  br label %48

48:                                               ; preds = %160, %47
  %49 = load i32, ptr %11, align 4, !tbaa !9
  %50 = load i32, ptr %10, align 4, !tbaa !9
  %51 = icmp slt i32 %49, %50
  br i1 %51, label %52, label %163

52:                                               ; preds = %48
  %53 = load i32, ptr %6, align 4, !tbaa !9
  %54 = mul nsw i32 %53, 2
  %55 = add nsw i32 %54, 32
  %56 = sext i32 %55 to i64
  %57 = call noalias ptr @av_mallocz(i64 noundef %56)
  %58 = load ptr, ptr %5, align 8, !tbaa !4
  %59 = getelementptr inbounds nuw %struct.SwsSlice, ptr %58, i32 0, i32 6
  %60 = load i32, ptr %8, align 4, !tbaa !9
  %61 = sext i32 %60 to i64
  %62 = getelementptr inbounds [4 x %struct.SwsPlane], ptr %59, i64 0, i64 %61
  %63 = getelementptr inbounds nuw %struct.SwsPlane, ptr %62, i32 0, i32 3
  %64 = load ptr, ptr %63, align 8, !tbaa !27
  %65 = load i32, ptr %11, align 4, !tbaa !9
  %66 = sext i32 %65 to i64
  %67 = getelementptr inbounds ptr, ptr %64, i64 %66
  store ptr %57, ptr %67, align 8, !tbaa !25
  %68 = load ptr, ptr %5, align 8, !tbaa !4
  %69 = getelementptr inbounds nuw %struct.SwsSlice, ptr %68, i32 0, i32 6
  %70 = load i32, ptr %8, align 4, !tbaa !9
  %71 = sext i32 %70 to i64
  %72 = getelementptr inbounds [4 x %struct.SwsPlane], ptr %69, i64 0, i64 %71
  %73 = getelementptr inbounds nuw %struct.SwsPlane, ptr %72, i32 0, i32 3
  %74 = load ptr, ptr %73, align 8, !tbaa !27
  %75 = load i32, ptr %11, align 4, !tbaa !9
  %76 = sext i32 %75 to i64
  %77 = getelementptr inbounds ptr, ptr %74, i64 %76
  %78 = load ptr, ptr %77, align 8, !tbaa !25
  %79 = icmp ne ptr %78, null
  br i1 %79, label %82, label %80

80:                                               ; preds = %52
  %81 = load ptr, ptr %5, align 8, !tbaa !4
  call void @free_lines(ptr noundef %81)
  store i32 -12, ptr %4, align 4
  store i32 1, ptr %13, align 4
  br label %164

82:                                               ; preds = %52
  %83 = load ptr, ptr %5, align 8, !tbaa !4
  %84 = getelementptr inbounds nuw %struct.SwsSlice, ptr %83, i32 0, i32 6
  %85 = load i32, ptr %8, align 4, !tbaa !9
  %86 = sext i32 %85 to i64
  %87 = getelementptr inbounds [4 x %struct.SwsPlane], ptr %84, i64 0, i64 %86
  %88 = getelementptr inbounds nuw %struct.SwsPlane, ptr %87, i32 0, i32 3
  %89 = load ptr, ptr %88, align 8, !tbaa !27
  %90 = load i32, ptr %11, align 4, !tbaa !9
  %91 = sext i32 %90 to i64
  %92 = getelementptr inbounds ptr, ptr %89, i64 %91
  %93 = load ptr, ptr %92, align 8, !tbaa !25
  %94 = load i32, ptr %6, align 4, !tbaa !9
  %95 = sext i32 %94 to i64
  %96 = getelementptr inbounds i8, ptr %93, i64 %95
  %97 = getelementptr inbounds i8, ptr %96, i64 16
  %98 = load ptr, ptr %5, align 8, !tbaa !4
  %99 = getelementptr inbounds nuw %struct.SwsSlice, ptr %98, i32 0, i32 6
  %100 = load i32, ptr %12, align 4, !tbaa !9
  %101 = sext i32 %100 to i64
  %102 = getelementptr inbounds [4 x %struct.SwsPlane], ptr %99, i64 0, i64 %101
  %103 = getelementptr inbounds nuw %struct.SwsPlane, ptr %102, i32 0, i32 3
  %104 = load ptr, ptr %103, align 8, !tbaa !27
  %105 = load i32, ptr %11, align 4, !tbaa !9
  %106 = sext i32 %105 to i64
  %107 = getelementptr inbounds ptr, ptr %104, i64 %106
  store ptr %97, ptr %107, align 8, !tbaa !25
  %108 = load ptr, ptr %5, align 8, !tbaa !4
  %109 = getelementptr inbounds nuw %struct.SwsSlice, ptr %108, i32 0, i32 3
  %110 = load i32, ptr %109, align 4, !tbaa !103
  %111 = icmp ne i32 %110, 0
  br i1 %111, label %112, label %159

112:                                              ; preds = %82
  %113 = load ptr, ptr %5, align 8, !tbaa !4
  %114 = getelementptr inbounds nuw %struct.SwsSlice, ptr %113, i32 0, i32 6
  %115 = load i32, ptr %8, align 4, !tbaa !9
  %116 = sext i32 %115 to i64
  %117 = getelementptr inbounds [4 x %struct.SwsPlane], ptr %114, i64 0, i64 %116
  %118 = getelementptr inbounds nuw %struct.SwsPlane, ptr %117, i32 0, i32 3
  %119 = load ptr, ptr %118, align 8, !tbaa !27
  %120 = load i32, ptr %11, align 4, !tbaa !9
  %121 = sext i32 %120 to i64
  %122 = getelementptr inbounds ptr, ptr %119, i64 %121
  %123 = load ptr, ptr %122, align 8, !tbaa !25
  %124 = load ptr, ptr %5, align 8, !tbaa !4
  %125 = getelementptr inbounds nuw %struct.SwsSlice, ptr %124, i32 0, i32 6
  %126 = load i32, ptr %8, align 4, !tbaa !9
  %127 = sext i32 %126 to i64
  %128 = getelementptr inbounds [4 x %struct.SwsPlane], ptr %125, i64 0, i64 %127
  %129 = getelementptr inbounds nuw %struct.SwsPlane, ptr %128, i32 0, i32 3
  %130 = load ptr, ptr %129, align 8, !tbaa !27
  %131 = load i32, ptr %11, align 4, !tbaa !9
  %132 = load i32, ptr %10, align 4, !tbaa !9
  %133 = add nsw i32 %131, %132
  %134 = sext i32 %133 to i64
  %135 = getelementptr inbounds ptr, ptr %130, i64 %134
  store ptr %123, ptr %135, align 8, !tbaa !25
  %136 = load ptr, ptr %5, align 8, !tbaa !4
  %137 = getelementptr inbounds nuw %struct.SwsSlice, ptr %136, i32 0, i32 6
  %138 = load i32, ptr %12, align 4, !tbaa !9
  %139 = sext i32 %138 to i64
  %140 = getelementptr inbounds [4 x %struct.SwsPlane], ptr %137, i64 0, i64 %139
  %141 = getelementptr inbounds nuw %struct.SwsPlane, ptr %140, i32 0, i32 3
  %142 = load ptr, ptr %141, align 8, !tbaa !27
  %143 = load i32, ptr %11, align 4, !tbaa !9
  %144 = sext i32 %143 to i64
  %145 = getelementptr inbounds ptr, ptr %142, i64 %144
  %146 = load ptr, ptr %145, align 8, !tbaa !25
  %147 = load ptr, ptr %5, align 8, !tbaa !4
  %148 = getelementptr inbounds nuw %struct.SwsSlice, ptr %147, i32 0, i32 6
  %149 = load i32, ptr %12, align 4, !tbaa !9
  %150 = sext i32 %149 to i64
  %151 = getelementptr inbounds [4 x %struct.SwsPlane], ptr %148, i64 0, i64 %150
  %152 = getelementptr inbounds nuw %struct.SwsPlane, ptr %151, i32 0, i32 3
  %153 = load ptr, ptr %152, align 8, !tbaa !27
  %154 = load i32, ptr %11, align 4, !tbaa !9
  %155 = load i32, ptr %10, align 4, !tbaa !9
  %156 = add nsw i32 %154, %155
  %157 = sext i32 %156 to i64
  %158 = getelementptr inbounds ptr, ptr %153, i64 %157
  store ptr %146, ptr %158, align 8, !tbaa !25
  br label %159

159:                                              ; preds = %112, %82
  br label %160

160:                                              ; preds = %159
  %161 = load i32, ptr %11, align 4, !tbaa !9
  %162 = add nsw i32 %161, 1
  store i32 %162, ptr %11, align 4, !tbaa !9
  br label %48, !llvm.loop !107

163:                                              ; preds = %48
  store i32 0, ptr %13, align 4
  br label %164

164:                                              ; preds = %163, %80
  call void @llvm.lifetime.end.p0(i64 4, ptr %12) #7
  call void @llvm.lifetime.end.p0(i64 4, ptr %11) #7
  call void @llvm.lifetime.end.p0(i64 4, ptr %10) #7
  %165 = load i32, ptr %13, align 4
  switch i32 %165, label %171 [
    i32 0, label %166
  ]

166:                                              ; preds = %164
  br label %167

167:                                              ; preds = %166
  %168 = load i32, ptr %8, align 4, !tbaa !9
  %169 = add nsw i32 %168, 1
  store i32 %169, ptr %8, align 4, !tbaa !9
  br label %19, !llvm.loop !108

170:                                              ; preds = %19
  store i32 0, ptr %4, align 4
  store i32 1, ptr %13, align 4
  br label %171

171:                                              ; preds = %170, %164
  call void @llvm.lifetime.end.p0(i64 8, ptr %9) #7
  call void @llvm.lifetime.end.p0(i64 4, ptr %8) #7
  %172 = load i32, ptr %4, align 4
  ret i32 %172
}