; Function Attrs: nounwind uwtable
define internal fastcc range(i32 -12, 1) i32 @alloc_lines(ptr noundef captures(none) initializes((0, 4), (16, 20)) %0, i32 noundef %1, i32 noundef %2) unnamed_addr #3 {
  %4 = getelementptr inbounds nuw i8, ptr %0, i64 16
  store i32 1, ptr %4, align 8, !tbaa !79
  store i32 %2, ptr %0, align 8, !tbaa !18
  %5 = getelementptr inbounds nuw i8, ptr %0, i64 24
  %6 = shl nsw i32 %1, 1
  %7 = add nsw i32 %6, 32
  %8 = sext i32 %7 to i64
  %9 = sext i32 %1 to i64
  %10 = getelementptr inbounds nuw i8, ptr %0, i64 12
  br label %11

11:                                               ; preds = %3, %.critedge
  %12 = phi i1 [ true, %3 ], [ false, %.critedge ]
  %indvars.iv57 = phi i64 [ 0, %3 ], [ 1, %.critedge ]
  %13 = getelementptr inbounds nuw [4 x %struct.SwsPlane], ptr %5, i64 0, i64 %indvars.iv57
  %14 = load i32, ptr %13, align 8, !tbaa !4
  %15 = getelementptr inbounds nuw [2 x i32], ptr @__const.alloc_lines.idx, i64 0, i64 %indvars.iv57
  %16 = load i32, ptr %15, align 4, !tbaa !17
  %17 = sext i32 %16 to i64
  %18 = getelementptr inbounds [4 x %struct.SwsPlane], ptr %5, i64 0, i64 %17
  %19 = load i32, ptr %18, align 8, !tbaa !4
  %20 = icmp eq i32 %14, %19
  br i1 %20, label %.preheader, label %24

.preheader:                                       ; preds = %11
  %.not5053 = icmp sgt i32 %14, 0
  br i1 %.not5053, label %.lr.ph, label %.critedge

.lr.ph:                                           ; preds = %.preheader
  %21 = getelementptr inbounds nuw i8, ptr %13, i64 16
  %22 = getelementptr inbounds nuw i8, ptr %18, i64 16
  %23 = zext nneg i32 %14 to i64
  br label %25

24:                                               ; preds = %11
  tail call void (ptr, i32, ptr, ...) @av_log(ptr noundef null, i32 noundef 0, ptr noundef nonnull @.str, ptr noundef nonnull @.str.3, ptr noundef nonnull @.str.4, i32 noundef 59) #8
  tail call void @abort() #9
  unreachable

25:                                               ; preds = %.lr.ph, %65
  %indvars.iv = phi i64 [ 0, %.lr.ph ], [ %indvars.iv.next, %65 ]
  %26 = tail call noalias ptr @av_mallocz(i64 noundef %8) #8
  %27 = load ptr, ptr %21, align 8, !tbaa !22
  %28 = getelementptr inbounds nuw ptr, ptr %27, i64 %indvars.iv
  store ptr %26, ptr %28, align 8, !tbaa !20
  %.not = icmp eq ptr %26, null
  br i1 %.not, label %.preheader60, label %53

.preheader60:                                     ; preds = %25, %._crit_edge.i
  %29 = phi i1 [ false, %._crit_edge.i ], [ true, %25 ]
  %indvars.iv29.i = phi i64 [ 1, %._crit_edge.i ], [ 0, %25 ]
  %30 = getelementptr inbounds nuw [4 x %struct.SwsPlane], ptr %5, i64 0, i64 %indvars.iv29.i
  %31 = load i32, ptr %30, align 8, !tbaa !4
  %32 = icmp sgt i32 %31, 0
  br i1 %32, label %.lr.ph.i, label %._crit_edge.i

.lr.ph.i:                                         ; preds = %.preheader60
  %33 = getelementptr inbounds nuw i8, ptr %30, i64 16
  %34 = zext nneg i32 %31 to i64
  br label %35

35:                                               ; preds = %43, %.lr.ph.i
  %indvars.iv.i = phi i64 [ 0, %.lr.ph.i ], [ %indvars.iv.next.i, %43 ]
  %36 = load ptr, ptr %33, align 8, !tbaa !22
  %37 = getelementptr inbounds nuw ptr, ptr %36, i64 %indvars.iv.i
  tail call void @av_freep(ptr noundef %37) #8
  %38 = load i32, ptr %10, align 4, !tbaa !78
  %.not24.i = icmp eq i32 %38, 0
  br i1 %.not24.i, label %43, label %39

39:                                               ; preds = %35
  %40 = load ptr, ptr %33, align 8, !tbaa !22
  %41 = getelementptr inbounds nuw ptr, ptr %40, i64 %indvars.iv.i
  %42 = getelementptr inbounds nuw ptr, ptr %41, i64 %34
  store ptr null, ptr %42, align 8, !tbaa !20
  br label %43

43:                                               ; preds = %39, %35
  %indvars.iv.next.i = add nuw nsw i64 %indvars.iv.i, 1
  %exitcond.not.i = icmp eq i64 %indvars.iv.next.i, %34
  br i1 %exitcond.not.i, label %._crit_edge.i, label %35, !llvm.loop !106

._crit_edge.i:                                    ; preds = %43, %.preheader60
  br i1 %29, label %.preheader60, label %.preheader.i, !llvm.loop !107

.preheader.i:                                     ; preds = %._crit_edge.i, %.preheader.i
  %indvars.iv32.i = phi i64 [ %indvars.iv.next33.i, %.preheader.i ], [ 0, %._crit_edge.i ]
  %44 = getelementptr inbounds nuw [4 x %struct.SwsPlane], ptr %5, i64 0, i64 %indvars.iv32.i
  %45 = getelementptr inbounds nuw i8, ptr %44, i64 16
  %46 = load ptr, ptr %45, align 8, !tbaa !22
  %47 = load i32, ptr %44, align 8, !tbaa !4
  %48 = sext i32 %47 to i64
  %49 = shl nsw i64 %48, 3
  %50 = load i32, ptr %10, align 4, !tbaa !78
  %.not.i = icmp eq i32 %50, 0
  %51 = select i1 %.not.i, i64 1, i64 3
  %52 = mul nsw i64 %49, %51
  tail call void @llvm.memset.p0.i64(ptr align 8 %46, i8 0, i64 %52, i1 false)
  %indvars.iv.next33.i = add nuw nsw i64 %indvars.iv32.i, 1
  %exitcond35.not.i = icmp eq i64 %indvars.iv.next33.i, 4
  br i1 %exitcond35.not.i, label %free_lines.exit, label %.preheader.i, !llvm.loop !108

free_lines.exit:                                  ; preds = %.preheader.i
  store i32 0, ptr %4, align 8, !tbaa !79
  br label %.loopexit

53:                                               ; preds = %25
  %54 = getelementptr inbounds i8, ptr %26, i64 %9
  %55 = getelementptr inbounds nuw i8, ptr %54, i64 16
  %56 = load ptr, ptr %22, align 8, !tbaa !22
  %57 = getelementptr inbounds nuw ptr, ptr %56, i64 %indvars.iv
  store ptr %55, ptr %57, align 8, !tbaa !20
  %58 = load i32, ptr %10, align 4, !tbaa !78
  %.not51 = icmp eq i32 %58, 0
  br i1 %.not51, label %65, label %59

59:                                               ; preds = %53
  %60 = load ptr, ptr %28, align 8, !tbaa !20
  %61 = add nuw nsw i64 %indvars.iv, %23
  %62 = getelementptr inbounds nuw ptr, ptr %27, i64 %61
  store ptr %60, ptr %62, align 8, !tbaa !20
  %63 = load ptr, ptr %57, align 8, !tbaa !20
  %64 = getelementptr inbounds nuw ptr, ptr %56, i64 %61
  store ptr %63, ptr %64, align 8, !tbaa !20
  br label %65

65:                                               ; preds = %53, %59
  %indvars.iv.next = add nuw nsw i64 %indvars.iv, 1
  %exitcond.not = icmp eq i64 %indvars.iv.next, %23
  br i1 %exitcond.not, label %.critedge, label %25, !llvm.loop !109

.critedge:                                        ; preds = %65, %.preheader
  br i1 %12, label %11, label %.loopexit, !llvm.loop !110

.loopexit:                                        ; preds = %.critedge, %free_lines.exit
  %.2 = phi i32 [ -12, %free_lines.exit ], [ 0, %.critedge ]
  ret i32 %.2
}